	.cpu cortex-m4
	.arch armv7e-m
	.fpu fpv4-sp-d16
	.eabi_attribute 27, 1
	.eabi_attribute 28, 1
	.eabi_attribute 20, 1
	.eabi_attribute 21, 1
	.eabi_attribute 23, 3
	.eabi_attribute 24, 1
	.eabi_attribute 25, 1
	.eabi_attribute 26, 1
	.eabi_attribute 30, 6
	.eabi_attribute 34, 1
	.eabi_attribute 38, 1
	.eabi_attribute 18, 4
	.file	"nrf_pwr_mgmt.c"
	.text
.Ltext0:
	.file 1 "C:\\Users\\zhan2\\Desktop\\nRF5_SDK_17.1.0_ddde560\\components\\libraries\\pwr_mgmt\\nrf_pwr_mgmt.c"
	.section	.text.__NVIC_ClearPendingIRQ,"ax",%progbits
	.align	1
	.syntax unified
	.thumb
	.thumb_func
	.type	__NVIC_ClearPendingIRQ, %function
__NVIC_ClearPendingIRQ:
.LFB124:
	.file 2 "../../../../../../components/toolchain/cmsis/include/core_cm4.h"
	.loc 2 1771 1
	@ args = 0, pretend = 0, frame = 8
	@ frame_needed = 0, uses_anonymous_args = 0
	@ link register save eliminated.
	sub	sp, sp, #8
.LCFI0:
	mov	r3, r0
	strb	r3, [sp, #7]
	.loc 2 1772 6
	ldrsb	r3, [sp, #7]
	cmp	r3, #0
	blt	.L3
	.loc 2 1774 81
	ldrb	r3, [sp, #7]	@ zero_extendqisi2
	and	r2, r3, #31
	.loc 2 1774 9
	ldr	r1, .L4
	.loc 2 1774 18
	ldrsb	r3, [sp, #7]
	.loc 2 1774 34
	lsrs	r3, r3, #5
	.loc 2 1774 45
	movs	r0, #1
	lsl	r2, r0, r2
	.loc 2 1774 43
	adds	r3, r3, #96
	str	r2, [r1, r3, lsl #2]
.L3:
	.loc 2 1776 1
	nop
	add	sp, sp, #8
.LCFI1:
	@ sp needed
	bx	lr
.L5:
	.align	2
.L4:
	.word	-536813312
.LFE124:
	.size	__NVIC_ClearPendingIRQ, .-__NVIC_ClearPendingIRQ
	.section	.text.__NVIC_SystemReset,"ax",%progbits
	.align	1
	.syntax unified
	.thumb
	.thumb_func
	.type	__NVIC_SystemReset, %function
__NVIC_SystemReset:
.LFB132:
	.loc 2 1934 1
	@ args = 0, pretend = 0, frame = 0
	@ frame_needed = 0, uses_anonymous_args = 0
	@ link register save eliminated.
.LBB21:
.LBB22:
	.file 3 "../../../../../../components/toolchain/cmsis/include/cmsis_gcc.h"
	.loc 3 946 3
	.syntax unified
@ 946 "../../../../../../components/toolchain/cmsis/include/cmsis_gcc.h" 1
	dsb 0xF
@ 0 "" 2
	.loc 3 947 1
	.thumb
	.syntax unified
	nop
.LBE22:
.LBE21:
	.loc 2 1938 32
	ldr	r3, .L8
	ldr	r3, [r3, #12]
	.loc 2 1938 40
	and	r2, r3, #1792
	.loc 2 1937 6
	ldr	r1, .L8
	.loc 2 1937 17
	ldr	r3, .L8+4
	orrs	r3, r3, r2
	.loc 2 1937 15
	str	r3, [r1, #12]
.LBB23:
.LBB24:
	.loc 3 946 3
	.syntax unified
@ 946 "../../../../../../components/toolchain/cmsis/include/cmsis_gcc.h" 1
	dsb 0xF
@ 0 "" 2
	.loc 3 947 1
	.thumb
	.syntax unified
	nop
.L7:
.LBE24:
.LBE23:
	.loc 2 1944 5 discriminator 1
	.syntax unified
@ 1944 "../../../../../../components/toolchain/cmsis/include/core_cm4.h" 1
	nop
@ 0 "" 2
	.thumb
	.syntax unified
	b	.L7
.L9:
	.align	2
.L8:
	.word	-536810240
	.word	100270084
.LFE132:
	.size	__NVIC_SystemReset, .-__NVIC_SystemReset
	.section	.text.sd_mbr_command,"ax",%progbits
	.align	1
	.syntax unified
	.thumb
	.thumb_func
	.type	sd_mbr_command, %function
sd_mbr_command:
.LFB145:
	.file 4 "../../../../../../components/softdevice/s112/headers/nrf52/nrf_mbr.h"
	.loc 4 257 1
	@ Naked Function: prologue and epilogue provided by programmer.
	@ args = 0, pretend = 0, frame = 0
	@ frame_needed = 0, uses_anonymous_args = 0
	.loc 4 257 1
	.syntax unified
@ 257 "../../../../../../components/softdevice/s112/headers/nrf52/nrf_mbr.h" 1
	svc #24
bx r14
@ 0 "" 2
	.thumb
	.syntax unified
	nop
	mov	r0, r3
.LFE145:
	.size	sd_mbr_command, .-sd_mbr_command
	.section .rodata
	.align	2
.LC0:
	.ascii	"../../../../../../components/libraries/experimental"
	.ascii	"_section_vars/nrf_section_iter.h\000"
	.section	.text.nrf_section_iter_get,"ax",%progbits
	.align	1
	.syntax unified
	.thumb
	.thumb_func
	.type	nrf_section_iter_get, %function
nrf_section_iter_get:
.LFB164:
	.file 5 "../../../../../../components/libraries/experimental_section_vars/nrf_section_iter.h"
	.loc 5 195 1
	@ args = 0, pretend = 0, frame = 8
	@ frame_needed = 0, uses_anonymous_args = 0
	push	{lr}
.LCFI2:
	sub	sp, sp, #12
.LCFI3:
	str	r0, [sp, #4]
	.loc 5 196 5
	ldr	r3, [sp, #4]
	cmp	r3, #0
	bne	.L12
	.loc 5 196 5 is_stmt 0 discriminator 2
	ldr	r1, .L14
	movs	r0, #196
	bl	assert_nrf_callback
.L12:
	.loc 5 197 18 is_stmt 1
	ldr	r3, [sp, #4]
	ldr	r3, [r3, #4]
	.loc 5 198 1
	mov	r0, r3
	add	sp, sp, #12
.LCFI4:
	@ sp needed
	ldr	pc, [sp], #4
.L15:
	.align	2
.L14:
	.word	.LC0
.LFE164:
	.size	nrf_section_iter_get, .-nrf_section_iter_get
	.section .rodata
	.align	2
.LC1:
	.ascii	"../../../../../../components/libraries/mutex/nrf_mt"
	.ascii	"x.h\000"
	.section	.text.nrf_mtx_init,"ax",%progbits
	.align	1
	.syntax unified
	.thumb
	.thumb_func
	.type	nrf_mtx_init, %function
nrf_mtx_init:
.LFB165:
	.file 6 "../../../../../../components/libraries/mutex/nrf_mtx.h"
	.loc 6 113 1
	@ args = 0, pretend = 0, frame = 8
	@ frame_needed = 0, uses_anonymous_args = 0
	push	{lr}
.LCFI5:
	sub	sp, sp, #12
.LCFI6:
	str	r0, [sp, #4]
	.loc 6 114 5
	ldr	r3, [sp, #4]
	cmp	r3, #0
	bne	.L17
	.loc 6 114 5 is_stmt 0 discriminator 2
	ldr	r1, .L18
	movs	r0, #114
	bl	assert_nrf_callback
.L17:
	.loc 6 116 12 is_stmt 1
	ldr	r3, [sp, #4]
	movs	r2, #0
	str	r2, [r3]
.LBB25:
.LBB26:
	.loc 3 957 3
	.syntax unified
@ 957 "../../../../../../components/toolchain/cmsis/include/cmsis_gcc.h" 1
	dmb 0xF
@ 0 "" 2
	.loc 3 958 1
	.thumb
	.syntax unified
	nop
.LBE26:
.LBE25:
	.loc 6 118 1
	nop
	add	sp, sp, #12
.LCFI7:
	@ sp needed
	ldr	pc, [sp], #4
.L19:
	.align	2
.L18:
	.word	.LC1
.LFE165:
	.size	nrf_mtx_init, .-nrf_mtx_init
	.section	.text.nrf_mtx_trylock,"ax",%progbits
	.align	1
	.syntax unified
	.thumb
	.thumb_func
	.type	nrf_mtx_trylock, %function
nrf_mtx_trylock:
.LFB167:
	.loc 6 132 1
	@ args = 0, pretend = 0, frame = 16
	@ frame_needed = 0, uses_anonymous_args = 0
	push	{lr}
.LCFI8:
	sub	sp, sp, #20
.LCFI9:
	str	r0, [sp, #4]
	.loc 6 133 5
	ldr	r3, [sp, #4]
	cmp	r3, #0
	bne	.L21
	.loc 6 133 5 is_stmt 0 discriminator 2
	ldr	r1, .L23
	movs	r0, #133
	bl	assert_nrf_callback
.L21:
	.loc 6 135 24 is_stmt 1
	movs	r1, #1
	ldr	r0, [sp, #4]
	bl	nrf_atomic_u32_fetch_store
	str	r0, [sp, #12]
.LBB27:
.LBB28:
	.loc 3 957 3
	.syntax unified
@ 957 "../../../../../../components/toolchain/cmsis/include/cmsis_gcc.h" 1
	dmb 0xF
@ 0 "" 2
	.loc 3 958 1
	.thumb
	.syntax unified
	nop
.LBE28:
.LBE27:
	.loc 6 141 21
	ldr	r3, [sp, #12]
	cmp	r3, #0
	ite	eq
	moveq	r3, #1
	movne	r3, #0
	uxtb	r3, r3
	.loc 6 142 1
	mov	r0, r3
	add	sp, sp, #20
.LCFI10:
	@ sp needed
	ldr	pc, [sp], #4
.L24:
	.align	2
.L23:
	.word	.LC1
.LFE167:
	.size	nrf_mtx_trylock, .-nrf_mtx_trylock
	.section	.text.nrf_mtx_unlock,"ax",%progbits
	.align	1
	.syntax unified
	.thumb
	.thumb_func
	.type	nrf_mtx_unlock, %function
nrf_mtx_unlock:
.LFB168:
	.loc 6 145 1
	@ args = 0, pretend = 0, frame = 8
	@ frame_needed = 0, uses_anonymous_args = 0
	push	{lr}
.LCFI11:
	sub	sp, sp, #12
.LCFI12:
	str	r0, [sp, #4]
	.loc 6 146 5
	ldr	r3, [sp, #4]
	cmp	r3, #0
	bne	.L26
	.loc 6 146 5 is_stmt 0 discriminator 2
	ldr	r1, .L28
	movs	r0, #146
	bl	assert_nrf_callback
.L26:
	.loc 6 147 5 is_stmt 1 discriminator 1
	ldr	r3, [sp, #4]
	ldr	r3, [r3]
	cmp	r3, #1
	beq	.L27
	.loc 6 147 5 is_stmt 0 discriminator 2
	ldr	r1, .L28
	movs	r0, #147
	bl	assert_nrf_callback
.L27:
.LBB29:
.LBB30:
	.loc 3 957 3 is_stmt 1
	.syntax unified
@ 957 "../../../../../../components/toolchain/cmsis/include/cmsis_gcc.h" 1
	dmb 0xF
@ 0 "" 2
	.loc 3 958 1
	.thumb
	.syntax unified
	nop
.LBE30:
.LBE29:
	.loc 6 153 12
	ldr	r3, [sp, #4]
	movs	r2, #0
	str	r2, [r3]
	.loc 6 154 1
	nop
	add	sp, sp, #12
.LCFI13:
	@ sp needed
	ldr	pc, [sp], #4
.L29:
	.align	2
.L28:
	.word	.LC1
.LFE168:
	.size	nrf_mtx_unlock, .-nrf_mtx_unlock
	.section	.text.sd_mutex_new,"ax",%progbits
	.align	1
	.syntax unified
	.thumb
	.thumb_func
	.type	sd_mutex_new, %function
sd_mutex_new:
.LFB181:
	.file 7 "../../../../../../components/softdevice/s112/headers/nrf_soc.h"
	.loc 7 431 1
	@ Naked Function: prologue and epilogue provided by programmer.
	@ args = 0, pretend = 0, frame = 0
	@ frame_needed = 0, uses_anonymous_args = 0
	.loc 7 431 1
	.syntax unified
@ 431 "../../../../../../components/softdevice/s112/headers/nrf_soc.h" 1
	svc #44
bx r14
@ 0 "" 2
	.thumb
	.syntax unified
	nop
	mov	r0, r3
.LFE181:
	.size	sd_mutex_new, .-sd_mutex_new
	.section	.text.sd_mutex_acquire,"ax",%progbits
	.align	1
	.syntax unified
	.thumb
	.thumb_func
	.type	sd_mutex_acquire, %function
sd_mutex_acquire:
.LFB182:
	.loc 7 440 1
	@ Naked Function: prologue and epilogue provided by programmer.
	@ args = 0, pretend = 0, frame = 0
	@ frame_needed = 0, uses_anonymous_args = 0
	.loc 7 440 1
	.syntax unified
@ 440 "../../../../../../components/softdevice/s112/headers/nrf_soc.h" 1
	svc #45
bx r14
@ 0 "" 2
	.thumb
	.syntax unified
	nop
	mov	r0, r3
.LFE182:
	.size	sd_mutex_acquire, .-sd_mutex_acquire
	.section	.text.sd_mutex_release,"ax",%progbits
	.align	1
	.syntax unified
	.thumb
	.thumb_func
	.type	sd_mutex_release, %function
sd_mutex_release:
.LFB183:
	.loc 7 448 1
	@ Naked Function: prologue and epilogue provided by programmer.
	@ args = 0, pretend = 0, frame = 0
	@ frame_needed = 0, uses_anonymous_args = 0
	.loc 7 448 1
	.syntax unified
@ 448 "../../../../../../components/softdevice/s112/headers/nrf_soc.h" 1
	svc #46
bx r14
@ 0 "" 2
	.thumb
	.syntax unified
	nop
	mov	r0, r3
.LFE183:
	.size	sd_mutex_release, .-sd_mutex_release
	.section	.text.sd_rand_application_pool_capacity_get,"ax",%progbits
	.align	1
	.syntax unified
	.thumb
	.thumb_func
	.type	sd_rand_application_pool_capacity_get, %function
sd_rand_application_pool_capacity_get:
.LFB184:
	.loc 7 456 1
	@ Naked Function: prologue and epilogue provided by programmer.
	@ args = 0, pretend = 0, frame = 0
	@ frame_needed = 0, uses_anonymous_args = 0
	.loc 7 456 1
	.syntax unified
@ 456 "../../../../../../components/softdevice/s112/headers/nrf_soc.h" 1
	svc #47
bx r14
@ 0 "" 2
	.thumb
	.syntax unified
	nop
	mov	r0, r3
.LFE184:
	.size	sd_rand_application_pool_capacity_get, .-sd_rand_application_pool_capacity_get
	.section	.text.sd_rand_application_bytes_available_get,"ax",%progbits
	.align	1
	.syntax unified
	.thumb
	.thumb_func
	.type	sd_rand_application_bytes_available_get, %function
sd_rand_application_bytes_available_get:
.LFB185:
	.loc 7 464 1
	@ Naked Function: prologue and epilogue provided by programmer.
	@ args = 0, pretend = 0, frame = 0
	@ frame_needed = 0, uses_anonymous_args = 0
	.loc 7 464 1
	.syntax unified
@ 464 "../../../../../../components/softdevice/s112/headers/nrf_soc.h" 1
	svc #48
bx r14
@ 0 "" 2
	.thumb
	.syntax unified
	nop
	mov	r0, r3
.LFE185:
	.size	sd_rand_application_bytes_available_get, .-sd_rand_application_bytes_available_get
	.section	.text.sd_rand_application_vector_get,"ax",%progbits
	.align	1
	.syntax unified
	.thumb
	.thumb_func
	.type	sd_rand_application_vector_get, %function
sd_rand_application_vector_get:
.LFB186:
	.loc 7 474 1
	@ Naked Function: prologue and epilogue provided by programmer.
	@ args = 0, pretend = 0, frame = 0
	@ frame_needed = 0, uses_anonymous_args = 0
	.loc 7 474 1
	.syntax unified
@ 474 "../../../../../../components/softdevice/s112/headers/nrf_soc.h" 1
	svc #49
bx r14
@ 0 "" 2
	.thumb
	.syntax unified
	nop
	mov	r0, r3
.LFE186:
	.size	sd_rand_application_vector_get, .-sd_rand_application_vector_get
	.section	.text.sd_power_reset_reason_get,"ax",%progbits
	.align	1
	.syntax unified
	.thumb
	.thumb_func
	.type	sd_power_reset_reason_get, %function
sd_power_reset_reason_get:
.LFB187:
	.loc 7 482 1
	@ Naked Function: prologue and epilogue provided by programmer.
	@ args = 0, pretend = 0, frame = 0
	@ frame_needed = 0, uses_anonymous_args = 0
	.loc 7 482 1
	.syntax unified
@ 482 "../../../../../../components/softdevice/s112/headers/nrf_soc.h" 1
	svc #52
bx r14
@ 0 "" 2
	.thumb
	.syntax unified
	nop
	mov	r0, r3
.LFE187:
	.size	sd_power_reset_reason_get, .-sd_power_reset_reason_get
	.section	.text.sd_power_reset_reason_clr,"ax",%progbits
	.align	1
	.syntax unified
	.thumb
	.thumb_func
	.type	sd_power_reset_reason_clr, %function
sd_power_reset_reason_clr:
.LFB188:
	.loc 7 490 1
	@ Naked Function: prologue and epilogue provided by programmer.
	@ args = 0, pretend = 0, frame = 0
	@ frame_needed = 0, uses_anonymous_args = 0
	.loc 7 490 1
	.syntax unified
@ 490 "../../../../../../components/softdevice/s112/headers/nrf_soc.h" 1
	svc #53
bx r14
@ 0 "" 2
	.thumb
	.syntax unified
	nop
	mov	r0, r3
.LFE188:
	.size	sd_power_reset_reason_clr, .-sd_power_reset_reason_clr
	.section	.text.sd_power_mode_set,"ax",%progbits
	.align	1
	.syntax unified
	.thumb
	.thumb_func
	.type	sd_power_mode_set, %function
sd_power_mode_set:
.LFB189:
	.loc 7 499 1
	@ Naked Function: prologue and epilogue provided by programmer.
	@ args = 0, pretend = 0, frame = 0
	@ frame_needed = 0, uses_anonymous_args = 0
	.loc 7 499 1
	.syntax unified
@ 499 "../../../../../../components/softdevice/s112/headers/nrf_soc.h" 1
	svc #50
bx r14
@ 0 "" 2
	.thumb
	.syntax unified
	nop
	mov	r0, r3
.LFE189:
	.size	sd_power_mode_set, .-sd_power_mode_set
	.section	.text.sd_power_system_off,"ax",%progbits
	.align	1
	.syntax unified
	.thumb
	.thumb_func
	.type	sd_power_system_off, %function
sd_power_system_off:
.LFB190:
	.loc 7 505 1
	@ Naked Function: prologue and epilogue provided by programmer.
	@ args = 0, pretend = 0, frame = 0
	@ frame_needed = 0, uses_anonymous_args = 0
	.loc 7 505 1
	.syntax unified
@ 505 "../../../../../../components/softdevice/s112/headers/nrf_soc.h" 1
	svc #51
bx r14
@ 0 "" 2
	.thumb
	.syntax unified
	nop
	mov	r0, r3
.LFE190:
	.size	sd_power_system_off, .-sd_power_system_off
	.section	.text.sd_power_pof_enable,"ax",%progbits
	.align	1
	.syntax unified
	.thumb
	.thumb_func
	.type	sd_power_pof_enable, %function
sd_power_pof_enable:
.LFB191:
	.loc 7 516 1
	@ Naked Function: prologue and epilogue provided by programmer.
	@ args = 0, pretend = 0, frame = 0
	@ frame_needed = 0, uses_anonymous_args = 0
	.loc 7 516 1
	.syntax unified
@ 516 "../../../../../../components/softdevice/s112/headers/nrf_soc.h" 1
	svc #54
bx r14
@ 0 "" 2
	.thumb
	.syntax unified
	nop
	mov	r0, r3
.LFE191:
	.size	sd_power_pof_enable, .-sd_power_pof_enable
	.section	.text.sd_power_usbpwrrdy_enable,"ax",%progbits
	.align	1
	.syntax unified
	.thumb
	.thumb_func
	.type	sd_power_usbpwrrdy_enable, %function
sd_power_usbpwrrdy_enable:
.LFB192:
	.loc 7 529 1
	@ Naked Function: prologue and epilogue provided by programmer.
	@ args = 0, pretend = 0, frame = 0
	@ frame_needed = 0, uses_anonymous_args = 0
	.loc 7 529 1
	.syntax unified
@ 529 "../../../../../../components/softdevice/s112/headers/nrf_soc.h" 1
	svc #77
bx r14
@ 0 "" 2
	.thumb
	.syntax unified
	nop
	mov	r0, r3
.LFE192:
	.size	sd_power_usbpwrrdy_enable, .-sd_power_usbpwrrdy_enable
	.section	.text.sd_power_usbdetected_enable,"ax",%progbits
	.align	1
	.syntax unified
	.thumb
	.thumb_func
	.type	sd_power_usbdetected_enable, %function
sd_power_usbdetected_enable:
.LFB193:
	.loc 7 542 1
	@ Naked Function: prologue and epilogue provided by programmer.
	@ args = 0, pretend = 0, frame = 0
	@ frame_needed = 0, uses_anonymous_args = 0
	.loc 7 542 1
	.syntax unified
@ 542 "../../../../../../components/softdevice/s112/headers/nrf_soc.h" 1
	svc #78
bx r14
@ 0 "" 2
	.thumb
	.syntax unified
	nop
	mov	r0, r3
.LFE193:
	.size	sd_power_usbdetected_enable, .-sd_power_usbdetected_enable
	.section	.text.sd_power_usbremoved_enable,"ax",%progbits
	.align	1
	.syntax unified
	.thumb
	.thumb_func
	.type	sd_power_usbremoved_enable, %function
sd_power_usbremoved_enable:
.LFB194:
	.loc 7 555 1
	@ Naked Function: prologue and epilogue provided by programmer.
	@ args = 0, pretend = 0, frame = 0
	@ frame_needed = 0, uses_anonymous_args = 0
	.loc 7 555 1
	.syntax unified
@ 555 "../../../../../../components/softdevice/s112/headers/nrf_soc.h" 1
	svc #79
bx r14
@ 0 "" 2
	.thumb
	.syntax unified
	nop
	mov	r0, r3
.LFE194:
	.size	sd_power_usbremoved_enable, .-sd_power_usbremoved_enable
	.section	.text.sd_power_usbregstatus_get,"ax",%progbits
	.align	1
	.syntax unified
	.thumb
	.thumb_func
	.type	sd_power_usbregstatus_get, %function
sd_power_usbregstatus_get:
.LFB195:
	.loc 7 565 1
	@ Naked Function: prologue and epilogue provided by programmer.
	@ args = 0, pretend = 0, frame = 0
	@ frame_needed = 0, uses_anonymous_args = 0
	.loc 7 565 1
	.syntax unified
@ 565 "../../../../../../components/softdevice/s112/headers/nrf_soc.h" 1
	svc #80
bx r14
@ 0 "" 2
	.thumb
	.syntax unified
	nop
	mov	r0, r3
.LFE195:
	.size	sd_power_usbregstatus_get, .-sd_power_usbregstatus_get
	.section	.text.sd_power_pof_threshold_set,"ax",%progbits
	.align	1
	.syntax unified
	.thumb
	.thumb_func
	.type	sd_power_pof_threshold_set, %function
sd_power_pof_threshold_set:
.LFB196:
	.loc 7 575 1
	@ Naked Function: prologue and epilogue provided by programmer.
	@ args = 0, pretend = 0, frame = 0
	@ frame_needed = 0, uses_anonymous_args = 0
	.loc 7 575 1
	.syntax unified
@ 575 "../../../../../../components/softdevice/s112/headers/nrf_soc.h" 1
	svc #55
bx r14
@ 0 "" 2
	.thumb
	.syntax unified
	nop
	mov	r0, r3
.LFE196:
	.size	sd_power_pof_threshold_set, .-sd_power_pof_threshold_set
	.section	.text.sd_power_ram_power_set,"ax",%progbits
	.align	1
	.syntax unified
	.thumb
	.thumb_func
	.type	sd_power_ram_power_set, %function
sd_power_ram_power_set:
.LFB197:
	.loc 7 585 1
	@ Naked Function: prologue and epilogue provided by programmer.
	@ args = 0, pretend = 0, frame = 0
	@ frame_needed = 0, uses_anonymous_args = 0
	.loc 7 585 1
	.syntax unified
@ 585 "../../../../../../components/softdevice/s112/headers/nrf_soc.h" 1
	svc #57
bx r14
@ 0 "" 2
	.thumb
	.syntax unified
	nop
	mov	r0, r3
.LFE197:
	.size	sd_power_ram_power_set, .-sd_power_ram_power_set
	.section	.text.sd_power_ram_power_clr,"ax",%progbits
	.align	1
	.syntax unified
	.thumb
	.thumb_func
	.type	sd_power_ram_power_clr, %function
sd_power_ram_power_clr:
.LFB198:
	.loc 7 594 1
	@ Naked Function: prologue and epilogue provided by programmer.
	@ args = 0, pretend = 0, frame = 0
	@ frame_needed = 0, uses_anonymous_args = 0
	.loc 7 594 1
	.syntax unified
@ 594 "../../../../../../components/softdevice/s112/headers/nrf_soc.h" 1
	svc #58
bx r14
@ 0 "" 2
	.thumb
	.syntax unified
	nop
	mov	r0, r3
.LFE198:
	.size	sd_power_ram_power_clr, .-sd_power_ram_power_clr
	.section	.text.sd_power_ram_power_get,"ax",%progbits
	.align	1
	.syntax unified
	.thumb
	.thumb_func
	.type	sd_power_ram_power_get, %function
sd_power_ram_power_get:
.LFB199:
	.loc 7 603 1
	@ Naked Function: prologue and epilogue provided by programmer.
	@ args = 0, pretend = 0, frame = 0
	@ frame_needed = 0, uses_anonymous_args = 0
	.loc 7 603 1
	.syntax unified
@ 603 "../../../../../../components/softdevice/s112/headers/nrf_soc.h" 1
	svc #59
bx r14
@ 0 "" 2
	.thumb
	.syntax unified
	nop
	mov	r0, r3
.LFE199:
	.size	sd_power_ram_power_get, .-sd_power_ram_power_get
	.section	.text.sd_power_gpregret_set,"ax",%progbits
	.align	1
	.syntax unified
	.thumb
	.thumb_func
	.type	sd_power_gpregret_set, %function
sd_power_gpregret_set:
.LFB200:
	.loc 7 612 1
	@ Naked Function: prologue and epilogue provided by programmer.
	@ args = 0, pretend = 0, frame = 0
	@ frame_needed = 0, uses_anonymous_args = 0
	.loc 7 612 1
	.syntax unified
@ 612 "../../../../../../components/softdevice/s112/headers/nrf_soc.h" 1
	svc #60
bx r14
@ 0 "" 2
	.thumb
	.syntax unified
	nop
	mov	r0, r3
.LFE200:
	.size	sd_power_gpregret_set, .-sd_power_gpregret_set
	.section	.text.sd_power_gpregret_clr,"ax",%progbits
	.align	1
	.syntax unified
	.thumb
	.thumb_func
	.type	sd_power_gpregret_clr, %function
sd_power_gpregret_clr:
.LFB201:
	.loc 7 621 1
	@ Naked Function: prologue and epilogue provided by programmer.
	@ args = 0, pretend = 0, frame = 0
	@ frame_needed = 0, uses_anonymous_args = 0
	.loc 7 621 1
	.syntax unified
@ 621 "../../../../../../components/softdevice/s112/headers/nrf_soc.h" 1
	svc #61
bx r14
@ 0 "" 2
	.thumb
	.syntax unified
	nop
	mov	r0, r3
.LFE201:
	.size	sd_power_gpregret_clr, .-sd_power_gpregret_clr
	.section	.text.sd_power_gpregret_get,"ax",%progbits
	.align	1
	.syntax unified
	.thumb
	.thumb_func
	.type	sd_power_gpregret_get, %function
sd_power_gpregret_get:
.LFB202:
	.loc 7 630 1
	@ Naked Function: prologue and epilogue provided by programmer.
	@ args = 0, pretend = 0, frame = 0
	@ frame_needed = 0, uses_anonymous_args = 0
	.loc 7 630 1
	.syntax unified
@ 630 "../../../../../../components/softdevice/s112/headers/nrf_soc.h" 1
	svc #62
bx r14
@ 0 "" 2
	.thumb
	.syntax unified
	nop
	mov	r0, r3
.LFE202:
	.size	sd_power_gpregret_get, .-sd_power_gpregret_get
	.section	.text.sd_power_dcdc_mode_set,"ax",%progbits
	.align	1
	.syntax unified
	.thumb
	.thumb_func
	.type	sd_power_dcdc_mode_set, %function
sd_power_dcdc_mode_set:
.LFB203:
	.loc 7 639 1
	@ Naked Function: prologue and epilogue provided by programmer.
	@ args = 0, pretend = 0, frame = 0
	@ frame_needed = 0, uses_anonymous_args = 0
	.loc 7 639 1
	.syntax unified
@ 639 "../../../../../../components/softdevice/s112/headers/nrf_soc.h" 1
	svc #63
bx r14
@ 0 "" 2
	.thumb
	.syntax unified
	nop
	mov	r0, r3
.LFE203:
	.size	sd_power_dcdc_mode_set, .-sd_power_dcdc_mode_set
	.section	.text.sd_clock_hfclk_request,"ax",%progbits
	.align	1
	.syntax unified
	.thumb
	.thumb_func
	.type	sd_clock_hfclk_request, %function
sd_clock_hfclk_request:
.LFB204:
	.loc 7 652 1
	@ Naked Function: prologue and epilogue provided by programmer.
	@ args = 0, pretend = 0, frame = 0
	@ frame_needed = 0, uses_anonymous_args = 0
	.loc 7 652 1
	.syntax unified
@ 652 "../../../../../../components/softdevice/s112/headers/nrf_soc.h" 1
	svc #66
bx r14
@ 0 "" 2
	.thumb
	.syntax unified
	nop
	mov	r0, r3
.LFE204:
	.size	sd_clock_hfclk_request, .-sd_clock_hfclk_request
	.section	.text.sd_clock_hfclk_release,"ax",%progbits
	.align	1
	.syntax unified
	.thumb
	.thumb_func
	.type	sd_clock_hfclk_release, %function
sd_clock_hfclk_release:
.LFB205:
	.loc 7 663 1
	@ Naked Function: prologue and epilogue provided by programmer.
	@ args = 0, pretend = 0, frame = 0
	@ frame_needed = 0, uses_anonymous_args = 0
	.loc 7 663 1
	.syntax unified
@ 663 "../../../../../../components/softdevice/s112/headers/nrf_soc.h" 1
	svc #67
bx r14
@ 0 "" 2
	.thumb
	.syntax unified
	nop
	mov	r0, r3
.LFE205:
	.size	sd_clock_hfclk_release, .-sd_clock_hfclk_release
	.section	.text.sd_clock_hfclk_is_running,"ax",%progbits
	.align	1
	.syntax unified
	.thumb
	.thumb_func
	.type	sd_clock_hfclk_is_running, %function
sd_clock_hfclk_is_running:
.LFB206:
	.loc 7 674 1
	@ Naked Function: prologue and epilogue provided by programmer.
	@ args = 0, pretend = 0, frame = 0
	@ frame_needed = 0, uses_anonymous_args = 0
	.loc 7 674 1
	.syntax unified
@ 674 "../../../../../../components/softdevice/s112/headers/nrf_soc.h" 1
	svc #68
bx r14
@ 0 "" 2
	.thumb
	.syntax unified
	nop
	mov	r0, r3
.LFE206:
	.size	sd_clock_hfclk_is_running, .-sd_clock_hfclk_is_running
	.section	.text.sd_app_evt_wait,"ax",%progbits
	.align	1
	.syntax unified
	.thumb
	.thumb_func
	.type	sd_app_evt_wait, %function
sd_app_evt_wait:
.LFB207:
	.loc 7 702 1
	@ Naked Function: prologue and epilogue provided by programmer.
	@ args = 0, pretend = 0, frame = 0
	@ frame_needed = 0, uses_anonymous_args = 0
	.loc 7 702 1
	.syntax unified
@ 702 "../../../../../../components/softdevice/s112/headers/nrf_soc.h" 1
	svc #65
bx r14
@ 0 "" 2
	.thumb
	.syntax unified
	nop
	mov	r0, r3
.LFE207:
	.size	sd_app_evt_wait, .-sd_app_evt_wait
	.section	.text.sd_ppi_channel_enable_get,"ax",%progbits
	.align	1
	.syntax unified
	.thumb
	.thumb_func
	.type	sd_ppi_channel_enable_get, %function
sd_ppi_channel_enable_get:
.LFB208:
	.loc 7 710 1
	@ Naked Function: prologue and epilogue provided by programmer.
	@ args = 0, pretend = 0, frame = 0
	@ frame_needed = 0, uses_anonymous_args = 0
	.loc 7 710 1
	.syntax unified
@ 710 "../../../../../../components/softdevice/s112/headers/nrf_soc.h" 1
	svc #32
bx r14
@ 0 "" 2
	.thumb
	.syntax unified
	nop
	mov	r0, r3
.LFE208:
	.size	sd_ppi_channel_enable_get, .-sd_ppi_channel_enable_get
	.section	.text.sd_ppi_channel_enable_set,"ax",%progbits
	.align	1
	.syntax unified
	.thumb
	.thumb_func
	.type	sd_ppi_channel_enable_set, %function
sd_ppi_channel_enable_set:
.LFB209:
	.loc 7 718 1
	@ Naked Function: prologue and epilogue provided by programmer.
	@ args = 0, pretend = 0, frame = 0
	@ frame_needed = 0, uses_anonymous_args = 0
	.loc 7 718 1
	.syntax unified
@ 718 "../../../../../../components/softdevice/s112/headers/nrf_soc.h" 1
	svc #33
bx r14
@ 0 "" 2
	.thumb
	.syntax unified
	nop
	mov	r0, r3
.LFE209:
	.size	sd_ppi_channel_enable_set, .-sd_ppi_channel_enable_set
	.section	.text.sd_ppi_channel_enable_clr,"ax",%progbits
	.align	1
	.syntax unified
	.thumb
	.thumb_func
	.type	sd_ppi_channel_enable_clr, %function
sd_ppi_channel_enable_clr:
.LFB210:
	.loc 7 726 1
	@ Naked Function: prologue and epilogue provided by programmer.
	@ args = 0, pretend = 0, frame = 0
	@ frame_needed = 0, uses_anonymous_args = 0
	.loc 7 726 1
	.syntax unified
@ 726 "../../../../../../components/softdevice/s112/headers/nrf_soc.h" 1
	svc #34
bx r14
@ 0 "" 2
	.thumb
	.syntax unified
	nop
	mov	r0, r3
.LFE210:
	.size	sd_ppi_channel_enable_clr, .-sd_ppi_channel_enable_clr
	.section	.text.sd_ppi_channel_assign,"ax",%progbits
	.align	1
	.syntax unified
	.thumb
	.thumb_func
	.type	sd_ppi_channel_assign, %function
sd_ppi_channel_assign:
.LFB211:
	.loc 7 737 1
	@ Naked Function: prologue and epilogue provided by programmer.
	@ args = 0, pretend = 0, frame = 0
	@ frame_needed = 0, uses_anonymous_args = 0
	.loc 7 737 1
	.syntax unified
@ 737 "../../../../../../components/softdevice/s112/headers/nrf_soc.h" 1
	svc #35
bx r14
@ 0 "" 2
	.thumb
	.syntax unified
	nop
	mov	r0, r3
.LFE211:
	.size	sd_ppi_channel_assign, .-sd_ppi_channel_assign
	.section	.text.sd_ppi_group_task_enable,"ax",%progbits
	.align	1
	.syntax unified
	.thumb
	.thumb_func
	.type	sd_ppi_group_task_enable, %function
sd_ppi_group_task_enable:
.LFB212:
	.loc 7 746 1
	@ Naked Function: prologue and epilogue provided by programmer.
	@ args = 0, pretend = 0, frame = 0
	@ frame_needed = 0, uses_anonymous_args = 0
	.loc 7 746 1
	.syntax unified
@ 746 "../../../../../../components/softdevice/s112/headers/nrf_soc.h" 1
	svc #36
bx r14
@ 0 "" 2
	.thumb
	.syntax unified
	nop
	mov	r0, r3
.LFE212:
	.size	sd_ppi_group_task_enable, .-sd_ppi_group_task_enable
	.section	.text.sd_ppi_group_task_disable,"ax",%progbits
	.align	1
	.syntax unified
	.thumb
	.thumb_func
	.type	sd_ppi_group_task_disable, %function
sd_ppi_group_task_disable:
.LFB213:
	.loc 7 755 1
	@ Naked Function: prologue and epilogue provided by programmer.
	@ args = 0, pretend = 0, frame = 0
	@ frame_needed = 0, uses_anonymous_args = 0
	.loc 7 755 1
	.syntax unified
@ 755 "../../../../../../components/softdevice/s112/headers/nrf_soc.h" 1
	svc #37
bx r14
@ 0 "" 2
	.thumb
	.syntax unified
	nop
	mov	r0, r3
.LFE213:
	.size	sd_ppi_group_task_disable, .-sd_ppi_group_task_disable
	.section	.text.sd_ppi_group_assign,"ax",%progbits
	.align	1
	.syntax unified
	.thumb
	.thumb_func
	.type	sd_ppi_group_assign, %function
sd_ppi_group_assign:
.LFB214:
	.loc 7 765 1
	@ Naked Function: prologue and epilogue provided by programmer.
	@ args = 0, pretend = 0, frame = 0
	@ frame_needed = 0, uses_anonymous_args = 0
	.loc 7 765 1
	.syntax unified
@ 765 "../../../../../../components/softdevice/s112/headers/nrf_soc.h" 1
	svc #38
bx r14
@ 0 "" 2
	.thumb
	.syntax unified
	nop
	mov	r0, r3
.LFE214:
	.size	sd_ppi_group_assign, .-sd_ppi_group_assign
	.section	.text.sd_ppi_group_get,"ax",%progbits
	.align	1
	.syntax unified
	.thumb
	.thumb_func
	.type	sd_ppi_group_get, %function
sd_ppi_group_get:
.LFB215:
	.loc 7 775 1
	@ Naked Function: prologue and epilogue provided by programmer.
	@ args = 0, pretend = 0, frame = 0
	@ frame_needed = 0, uses_anonymous_args = 0
	.loc 7 775 1
	.syntax unified
@ 775 "../../../../../../components/softdevice/s112/headers/nrf_soc.h" 1
	svc #39
bx r14
@ 0 "" 2
	.thumb
	.syntax unified
	nop
	mov	r0, r3
.LFE215:
	.size	sd_ppi_group_get, .-sd_ppi_group_get
	.section	.text.sd_radio_notification_cfg_set,"ax",%progbits
	.align	1
	.syntax unified
	.thumb
	.thumb_func
	.type	sd_radio_notification_cfg_set, %function
sd_radio_notification_cfg_set:
.LFB216:
	.loc 7 806 1
	@ Naked Function: prologue and epilogue provided by programmer.
	@ args = 0, pretend = 0, frame = 0
	@ frame_needed = 0, uses_anonymous_args = 0
	.loc 7 806 1
	.syntax unified
@ 806 "../../../../../../components/softdevice/s112/headers/nrf_soc.h" 1
	svc #69
bx r14
@ 0 "" 2
	.thumb
	.syntax unified
	nop
	mov	r0, r3
.LFE216:
	.size	sd_radio_notification_cfg_set, .-sd_radio_notification_cfg_set
	.section	.text.sd_ecb_block_encrypt,"ax",%progbits
	.align	1
	.syntax unified
	.thumb
	.thumb_func
	.type	sd_ecb_block_encrypt, %function
sd_ecb_block_encrypt:
.LFB217:
	.loc 7 822 1
	@ Naked Function: prologue and epilogue provided by programmer.
	@ args = 0, pretend = 0, frame = 0
	@ frame_needed = 0, uses_anonymous_args = 0
	.loc 7 822 1
	.syntax unified
@ 822 "../../../../../../components/softdevice/s112/headers/nrf_soc.h" 1
	svc #70
bx r14
@ 0 "" 2
	.thumb
	.syntax unified
	nop
	mov	r0, r3
.LFE217:
	.size	sd_ecb_block_encrypt, .-sd_ecb_block_encrypt
	.section	.text.sd_ecb_blocks_encrypt,"ax",%progbits
	.align	1
	.syntax unified
	.thumb
	.thumb_func
	.type	sd_ecb_blocks_encrypt, %function
sd_ecb_blocks_encrypt:
.LFB218:
	.loc 7 839 1
	@ Naked Function: prologue and epilogue provided by programmer.
	@ args = 0, pretend = 0, frame = 0
	@ frame_needed = 0, uses_anonymous_args = 0
	.loc 7 839 1
	.syntax unified
@ 839 "../../../../../../components/softdevice/s112/headers/nrf_soc.h" 1
	svc #71
bx r14
@ 0 "" 2
	.thumb
	.syntax unified
	nop
	mov	r0, r3
.LFE218:
	.size	sd_ecb_blocks_encrypt, .-sd_ecb_blocks_encrypt
	.section	.text.sd_evt_get,"ax",%progbits
	.align	1
	.syntax unified
	.thumb
	.thumb_func
	.type	sd_evt_get, %function
sd_evt_get:
.LFB219:
	.loc 7 850 1
	@ Naked Function: prologue and epilogue provided by programmer.
	@ args = 0, pretend = 0, frame = 0
	@ frame_needed = 0, uses_anonymous_args = 0
	.loc 7 850 1
	.syntax unified
@ 850 "../../../../../../components/softdevice/s112/headers/nrf_soc.h" 1
	svc #75
bx r14
@ 0 "" 2
	.thumb
	.syntax unified
	nop
	mov	r0, r3
.LFE219:
	.size	sd_evt_get, .-sd_evt_get
	.section	.text.sd_temp_get,"ax",%progbits
	.align	1
	.syntax unified
	.thumb
	.thumb_func
	.type	sd_temp_get, %function
sd_temp_get:
.LFB220:
	.loc 7 861 1
	@ Naked Function: prologue and epilogue provided by programmer.
	@ args = 0, pretend = 0, frame = 0
	@ frame_needed = 0, uses_anonymous_args = 0
	.loc 7 861 1
	.syntax unified
@ 861 "../../../../../../components/softdevice/s112/headers/nrf_soc.h" 1
	svc #76
bx r14
@ 0 "" 2
	.thumb
	.syntax unified
	nop
	mov	r0, r3
.LFE220:
	.size	sd_temp_get, .-sd_temp_get
	.section	.text.sd_flash_write,"ax",%progbits
	.align	1
	.syntax unified
	.thumb
	.thumb_func
	.type	sd_flash_write, %function
sd_flash_write:
.LFB221:
	.loc 7 898 1
	@ Naked Function: prologue and epilogue provided by programmer.
	@ args = 0, pretend = 0, frame = 0
	@ frame_needed = 0, uses_anonymous_args = 0
	.loc 7 898 1
	.syntax unified
@ 898 "../../../../../../components/softdevice/s112/headers/nrf_soc.h" 1
	svc #41
bx r14
@ 0 "" 2
	.thumb
	.syntax unified
	nop
	mov	r0, r3
.LFE221:
	.size	sd_flash_write, .-sd_flash_write
	.section	.text.sd_flash_page_erase,"ax",%progbits
	.align	1
	.syntax unified
	.thumb
	.thumb_func
	.type	sd_flash_page_erase, %function
sd_flash_page_erase:
.LFB222:
	.loc 7 930 1
	@ Naked Function: prologue and epilogue provided by programmer.
	@ args = 0, pretend = 0, frame = 0
	@ frame_needed = 0, uses_anonymous_args = 0
	.loc 7 930 1
	.syntax unified
@ 930 "../../../../../../components/softdevice/s112/headers/nrf_soc.h" 1
	svc #40
bx r14
@ 0 "" 2
	.thumb
	.syntax unified
	nop
	mov	r0, r3
.LFE222:
	.size	sd_flash_page_erase, .-sd_flash_page_erase
	.section	.text.sd_flash_protect,"ax",%progbits
	.align	1
	.syntax unified
	.thumb
	.thumb_func
	.type	sd_flash_protect, %function
sd_flash_protect:
.LFB223:
	.loc 7 953 1
	@ Naked Function: prologue and epilogue provided by programmer.
	@ args = 0, pretend = 0, frame = 0
	@ frame_needed = 0, uses_anonymous_args = 0
	.loc 7 953 1
	.syntax unified
@ 953 "../../../../../../components/softdevice/s112/headers/nrf_soc.h" 1
	svc #42
bx r14
@ 0 "" 2
	.thumb
	.syntax unified
	nop
	mov	r0, r3
.LFE223:
	.size	sd_flash_protect, .-sd_flash_protect
	.section	.text.sd_radio_session_open,"ax",%progbits
	.align	1
	.syntax unified
	.thumb
	.thumb_func
	.type	sd_radio_session_open, %function
sd_radio_session_open:
.LFB224:
	.loc 7 975 2
	@ Naked Function: prologue and epilogue provided by programmer.
	@ args = 0, pretend = 0, frame = 0
	@ frame_needed = 0, uses_anonymous_args = 0
	.loc 7 975 2
	.syntax unified
@ 975 "../../../../../../components/softdevice/s112/headers/nrf_soc.h" 1
	svc #72
bx r14
@ 0 "" 2
	.thumb
	.syntax unified
	nop
	mov	r0, r3
.LFE224:
	.size	sd_radio_session_open, .-sd_radio_session_open
	.section	.text.sd_radio_session_close,"ax",%progbits
	.align	1
	.syntax unified
	.thumb
	.thumb_func
	.type	sd_radio_session_close, %function
sd_radio_session_close:
.LFB225:
	.loc 7 988 2
	@ Naked Function: prologue and epilogue provided by programmer.
	@ args = 0, pretend = 0, frame = 0
	@ frame_needed = 0, uses_anonymous_args = 0
	.loc 7 988 2
	.syntax unified
@ 988 "../../../../../../components/softdevice/s112/headers/nrf_soc.h" 1
	svc #73
bx r14
@ 0 "" 2
	.thumb
	.syntax unified
	nop
	mov	r0, r3
.LFE225:
	.size	sd_radio_session_close, .-sd_radio_session_close
	.section	.text.sd_radio_request,"ax",%progbits
	.align	1
	.syntax unified
	.thumb
	.thumb_func
	.type	sd_radio_request, %function
sd_radio_request:
.LFB226:
	.loc 7 1025 2
	@ Naked Function: prologue and epilogue provided by programmer.
	@ args = 0, pretend = 0, frame = 0
	@ frame_needed = 0, uses_anonymous_args = 0
	.loc 7 1025 2
	.syntax unified
@ 1025 "../../../../../../components/softdevice/s112/headers/nrf_soc.h" 1
	svc #74
bx r14
@ 0 "" 2
	.thumb
	.syntax unified
	nop
	mov	r0, r3
.LFE226:
	.size	sd_radio_request, .-sd_radio_request
	.section	.text.sd_protected_register_write,"ax",%progbits
	.align	1
	.syntax unified
	.thumb
	.thumb_func
	.type	sd_protected_register_write, %function
sd_protected_register_write:
.LFB227:
	.loc 7 1046 1
	@ Naked Function: prologue and epilogue provided by programmer.
	@ args = 0, pretend = 0, frame = 0
	@ frame_needed = 0, uses_anonymous_args = 0
	.loc 7 1046 1
	.syntax unified
@ 1046 "../../../../../../components/softdevice/s112/headers/nrf_soc.h" 1
	svc #43
bx r14
@ 0 "" 2
	.thumb
	.syntax unified
	nop
	mov	r0, r3
.LFE227:
	.size	sd_protected_register_write, .-sd_protected_register_write
	.section	.text.nrf_power_system_off,"ax",%progbits
	.align	1
	.syntax unified
	.thumb
	.thumb_func
	.type	nrf_power_system_off, %function
nrf_power_system_off:
.LFB256:
	.file 8 "../../../../../../modules/nrfx/hal/nrf_power.h"
	.loc 8 900 1
	@ args = 0, pretend = 0, frame = 0
	@ frame_needed = 0, uses_anonymous_args = 0
	@ link register save eliminated.
	.loc 8 901 14
	mov	r3, #1073741824
	.loc 8 901 26
	movs	r2, #1
	str	r2, [r3, #1280]
.LBB31:
.LBB32:
	.loc 3 946 3
	.syntax unified
@ 946 "../../../../../../components/toolchain/cmsis/include/cmsis_gcc.h" 1
	dsb 0xF
@ 0 "" 2
	.loc 3 947 1
	.thumb
	.syntax unified
	nop
.L78:
.LBE32:
.LBE31:
	.loc 8 907 9 discriminator 1
	.syntax unified
@ 907 "../../../../../../modules/nrfx/hal/nrf_power.h" 1
	wfe
@ 0 "" 2
	.thumb
	.syntax unified
	b	.L78
.LFE256:
	.size	nrf_power_system_off, .-nrf_power_system_off
	.global	m_nrf_log_pwr_mgmt_logs_data_const
	.section .rodata
	.align	2
.LC2:
	.ascii	"pwr_mgmt\000"
	.section	.log_const_data_pwr_mgmt,"a"
	.align	2
	.type	m_nrf_log_pwr_mgmt_logs_data_const, %object
	.size	m_nrf_log_pwr_mgmt_logs_data_const, 8
m_nrf_log_pwr_mgmt_logs_data_const:
	.word	.LC2
	.byte	0
	.byte	0
	.byte	0
	.byte	0
	.section	.rodata.pwr_mgmt_data,"a"
	.align	2
	.type	pwr_mgmt_data, %object
	.size	pwr_mgmt_data, 12
pwr_mgmt_data:
	.word	__start_pwr_mgmt_data
	.word	__stop_pwr_mgmt_data
	.word	4
	.section	.bss.m_pwr_mgmt_evt,"aw",%nobits
	.type	m_pwr_mgmt_evt, %object
	.size	m_pwr_mgmt_evt, 1
m_pwr_mgmt_evt:
	.space	1
	.section	.bss.m_sysoff_mtx,"aw",%nobits
	.align	2
	.type	m_sysoff_mtx, %object
	.size	m_sysoff_mtx, 4
m_sysoff_mtx:
	.space	4
	.section	.bss.m_shutdown_started,"aw",%nobits
	.type	m_shutdown_started, %object
	.size	m_shutdown_started, 1
m_shutdown_started:
	.space	1
	.section	.bss.m_handlers_iter,"aw",%nobits
	.align	2
	.type	m_handlers_iter, %object
	.size	m_handlers_iter, 8
m_handlers_iter:
	.space	8
	.section .rodata
	.align	2
.LC3:
	.ascii	"C:\\Users\\zhan2\\Desktop\\nRF5_SDK_17.1.0_ddde560\\"
	.ascii	"components\\libraries\\pwr_mgmt\\nrf_pwr_mgmt.c\000"
	.section	.text.pwr_mgmt_fpu_sleep_prepare,"ax",%progbits
	.align	1
	.syntax unified
	.thumb
	.thumb_func
	.type	pwr_mgmt_fpu_sleep_prepare, %function
pwr_mgmt_fpu_sleep_prepare:
.LFB280:
	.loc 1 92 6
	@ args = 0, pretend = 0, frame = 16
	@ frame_needed = 0, uses_anonymous_args = 0
	push	{lr}
.LCFI14:
	sub	sp, sp, #20
.LCFI15:
.LBB33:
	.loc 1 95 9
	movs	r3, #0
	strb	r3, [sp, #7]
	add	r3, sp, #7
	mov	r0, r3
	bl	app_util_critical_region_enter
.LBB34:
.LBB35:
	.